target datalayout = "e-m:e-p270:32:32-p271:32:32-p272:64:64-i64:64-i128:128-f80:128-n8:16:32:64-S128"
target triple = "x86_64-pc-linux-gnu"

%"struct.Luau::Field" = type { %"class.std::shared_ptr", %"class.std::__cxx11::basic_string" }
%"class.std::shared_ptr" = type { %"class.std::__shared_ptr" }
%"class.std::__shared_ptr" = type { ptr, %"class.std::__shared_count" }
%"class.std::__shared_count" = type { ptr }
%"class.std::__cxx11::basic_string" = type { %"struct.std::__cxx11::basic_string<char>::_Alloc_hider", i64, %union.anon }
%"struct.std::__cxx11::basic_string<char>::_Alloc_hider" = type { ptr }
%union.anon = type { i64, [8 x i8] }
%"class.Luau::Variant" = type { i32, [4 x i8], [48 x i8] }

@_ZZNK4Luau7VariantIJNS_6SymbolENS_5FieldEEEeqERKS3_E5table = linkonce_odr dso_local constant [2 x ptr] [ptr @_ZN4Luau7VariantIJNS_6SymbolENS_5FieldEEE8fnPredEqIS1_EEbPKvS6_, ptr @_ZN4Luau7VariantIJNS_6SymbolENS_5FieldEEE8fnPredEqIS2_EEbPKvS6_], comdat, align 16

; Function Attrs: mustprogress nounwind uwtable
define available_externally noundef ptr @_ZNKSt7__cxx1112basic_stringIcSt11char_traitsIcESaIcEE7_M_dataEv(ptr noundef nonnull align 8 dereferenceable(32) %0) #4 align 2 {
  %2 = alloca ptr, align 8
  store ptr %0, ptr %2, align 8, !tbaa !11
  %3 = load ptr, ptr %2, align 8
  %4 = getelementptr inbounds nuw %"class.std::__cxx11::basic_string", ptr %3, i32 0, i32 0
  %5 = getelementptr inbounds nuw %"struct.std::__cxx11::basic_string<char>::_Alloc_hider", ptr %4, i32 0, i32 0
  %6 = load ptr, ptr %5, align 8, !tbaa !129
  ret ptr %6
}

; Function Attrs: mustprogress nounwind uwtable
define linkonce_odr dso_local noundef ptr @_ZNKSt19__shared_ptr_accessIN4Luau7VariantIJNS0_6SymbolENS0_5FieldEEEELN9__gnu_cxx12_Lock_policyE2ELb0ELb0EE6_M_getEv(ptr noundef nonnull align 1 dereferenceable(1) %0) #4 comdat align 2 {
  %2 = alloca ptr, align 8
  store ptr %0, ptr %2, align 8, !tbaa !15
  %3 = load ptr, ptr %2, align 8
  %4 = call noundef ptr @_ZNKSt12__shared_ptrIN4Luau7VariantIJNS0_6SymbolENS0_5FieldEEEELN9__gnu_cxx12_Lock_policyE2EE3getEv(ptr noundef nonnull align 8 dereferenceable(16) %3) #19
  ret ptr %4
}

; Function Attrs: mustprogress nounwind uwtable
define linkonce_odr dso_local noundef ptr @_ZNKSt12__shared_ptrIN4Luau7VariantIJNS0_6SymbolENS0_5FieldEEEELN9__gnu_cxx12_Lock_policyE2EE3getEv(ptr noundef nonnull align 8 dereferenceable(16) %0) #4 comdat align 2 {
  %2 = alloca ptr, align 8
  store ptr %0, ptr %2, align 8, !tbaa !40
  %3 = load ptr, ptr %2, align 8
  %4 = getelementptr inbounds nuw %"class.std::__shared_ptr", ptr %3, i32 0, i32 0
  %5 = load ptr, ptr %4, align 8, !tbaa !42
  ret ptr %5
}

; Function Attrs: noinline noreturn nounwind uwtable
define linkonce_odr hidden void @__clang_call_terminate(ptr noundef %0) #7 comdat {
  %2 = call ptr @__cxa_begin_catch(ptr %0) #19
  call void @_ZSt9terminatev() #20
  unreachable
}

; Function Attrs: mustprogress nounwind uwtable
define linkonce_odr dso_local noundef i32 @_ZNSt11char_traitsIcE7compareEPKcS2_m(ptr noundef %0, ptr noundef %1, i64 noundef %2) #4 comdat align 2 {
  %4 = alloca i32, align 4
  %5 = alloca ptr, align 8
  %6 = alloca ptr, align 8
  %7 = alloca i64, align 8
  store ptr %0, ptr %5, align 8, !tbaa !90
  store ptr %1, ptr %6, align 8, !tbaa !90
  store i64 %2, ptr %7, align 8, !tbaa !24
  %8 = load i64, ptr %7, align 8, !tbaa !24
  %9 = icmp eq i64 %8, 0
  br i1 %9, label %10, label %11

10:                                               ; preds = %3
  store i32 0, ptr %4, align 4
  br label %16

11:                                               ; preds = %3
  %12 = load ptr, ptr %5, align 8, !tbaa !90
  %13 = load ptr, ptr %6, align 8, !tbaa !90
  %14 = load i64, ptr %7, align 8, !tbaa !24
  %15 = call i32 @memcmp(ptr noundef %12, ptr noundef %13, i64 noundef %14) #19
  store i32 %15, ptr %4, align 4
  br label %16

16:                                               ; preds = %11, %10
  %17 = load i32, ptr %4, align 4
  ret i32 %17
}

; Function Attrs: mustprogress nounwind uwtable
define available_externally noundef ptr @_ZNKSt7__cxx1112basic_stringIcSt11char_traitsIcESaIcEE4dataEv(ptr noundef nonnull align 8 dereferenceable(32) %0) #4 align 2 personality ptr @__gxx_personality_v0 {
  %2 = alloca ptr, align 8
  store ptr %0, ptr %2, align 8, !tbaa !11
  %3 = load ptr, ptr %2, align 8
  %4 = invoke noundef ptr @_ZNKSt7__cxx1112basic_stringIcSt11char_traitsIcESaIcEE7_M_dataEv(ptr noundef nonnull align 8 dereferenceable(32) %3)
          to label %5 unwind label %6

5:                                                ; preds = %1
  ret ptr %4

6:                                                ; preds = %1
  %7 = landingpad { ptr, i32 }
          catch ptr null
  %8 = extractvalue { ptr, i32 } %7, 0
  call void @__clang_call_terminate(ptr %8) #20
  unreachable
}

; Function Attrs: mustprogress nounwind uwtable
define available_externally noundef i64 @_ZNKSt7__cxx1112basic_stringIcSt11char_traitsIcESaIcEE4sizeEv(ptr noundef nonnull align 8 dereferenceable(32) %0) #4 align 2 {
  %2 = alloca ptr, align 8
  store ptr %0, ptr %2, align 8, !tbaa !11
  %3 = load ptr, ptr %2, align 8
  %4 = getelementptr inbounds nuw %"class.std::__cxx11::basic_string", ptr %3, i32 0, i32 1
  %5 = load i64, ptr %4, align 8, !tbaa !126
  ret i64 %5
}

; Function Attrs: mustprogress uwtable
define linkonce_odr dso_local noundef zeroext i1 @_ZNK4Luau7VariantIJNS_6SymbolENS_5FieldEEEeqERKS3_(ptr noundef nonnull align 8 dereferenceable(56) %0, ptr noundef nonnull align 8 dereferenceable(56) %1) #2 comdat align 2 {
  %3 = alloca ptr, align 8
  %4 = alloca ptr, align 8
  store ptr %0, ptr %3, align 8, !tbaa !17
  store ptr %1, ptr %4, align 8, !tbaa !17
  %5 = load ptr, ptr %3, align 8
  %6 = getelementptr inbounds nuw %"class.Luau::Variant", ptr %5, i32 0, i32 0
  %7 = load i32, ptr %6, align 8, !tbaa !19
  %8 = load ptr, ptr %4, align 8, !tbaa !17
  %9 = getelementptr inbounds nuw %"class.Luau::Variant", ptr %8, i32 0, i32 0
  %10 = load i32, ptr %9, align 8, !tbaa !19
  %11 = icmp eq i32 %7, %10
  br i1 %11, label %12, label %22

12:                                               ; preds = %2
  %13 = getelementptr inbounds nuw %"class.Luau::Variant", ptr %5, i32 0, i32 0
  %14 = load i32, ptr %13, align 8, !tbaa !19
  %15 = sext i32 %14 to i64
  %16 = getelementptr inbounds [2 x ptr], ptr @_ZZNK4Luau7VariantIJNS_6SymbolENS_5FieldEEEeqERKS3_E5table, i64 0, i64 %15
  %17 = load ptr, ptr %16, align 8, !tbaa !21
  %18 = getelementptr inbounds nuw %"class.Luau::Variant", ptr %5, i32 0, i32 2
  %19 = load ptr, ptr %4, align 8, !tbaa !17
  %20 = getelementptr inbounds nuw %"class.Luau::Variant", ptr %19, i32 0, i32 2
  %21 = call noundef zeroext i1 %17(ptr noundef %18, ptr noundef %20)
  br label %22

22:                                               ; preds = %12, %2
  %23 = phi i1 [ false, %2 ], [ %21, %12 ]
  ret i1 %23
}

; Function Attrs: mustprogress nounwind uwtable
define linkonce_odr dso_local noundef nonnull align 8 dereferenceable(56) ptr @_ZNKSt19__shared_ptr_accessIN4Luau7VariantIJNS0_6SymbolENS0_5FieldEEEELN9__gnu_cxx12_Lock_policyE2ELb0ELb0EEdeEv(ptr noundef nonnull align 1 dereferenceable(1) %0) #4 comdat align 2 {
  %2 = alloca ptr, align 8
  store ptr %0, ptr %2, align 8, !tbaa !15
  %3 = load ptr, ptr %2, align 8
  br label %4

4:                                                ; preds = %1
  br label %5

5:                                                ; preds = %4
  br label %6

6:                                                ; preds = %5
  %7 = call noundef ptr @_ZNKSt19__shared_ptr_accessIN4Luau7VariantIJNS0_6SymbolENS0_5FieldEEEELN9__gnu_cxx12_Lock_policyE2ELb0ELb0EE6_M_getEv(ptr noundef nonnull align 1 dereferenceable(1) %3) #19
  ret ptr %7
}

; Function Attrs: inlinehint mustprogress nounwind uwtable
define linkonce_odr dso_local noundef zeroext i1 @_ZSteqIN4Luau7VariantIJNS0_6SymbolENS0_5FieldEEEES4_EbRKSt10shared_ptrIT_ERKS5_IT0_E(ptr noundef nonnull align 8 dereferenceable(16) %0, ptr noundef nonnull align 8 dereferenceable(16) %1) #3 comdat {
  %3 = alloca ptr, align 8
  %4 = alloca ptr, align 8
  store ptr %0, ptr %3, align 8, !tbaa !13
  store ptr %1, ptr %4, align 8, !tbaa !13
  %5 = load ptr, ptr %3, align 8, !tbaa !13
  %6 = call noundef ptr @_ZNKSt12__shared_ptrIN4Luau7VariantIJNS0_6SymbolENS0_5FieldEEEELN9__gnu_cxx12_Lock_policyE2EE3getEv(ptr noundef nonnull align 8 dereferenceable(16) %5) #19
  %7 = load ptr, ptr %4, align 8, !tbaa !13
  %8 = call noundef ptr @_ZNKSt12__shared_ptrIN4Luau7VariantIJNS0_6SymbolENS0_5FieldEEEELN9__gnu_cxx12_Lock_policyE2EE3getEv(ptr noundef nonnull align 8 dereferenceable(16) %7) #19
  %9 = icmp eq ptr %6, %8
  ret i1 %9
}

; Function Attrs: inlinehint mustprogress nounwind uwtable
define linkonce_odr dso_local noundef zeroext i1 @_ZSteqIcEN9__gnu_cxx11__enable_ifIXsr9__is_charIT_EE7__valueEbE6__typeERKNSt7__cxx1112basic_stringIS2_St11char_traitsIS2_ESaIS2_EEESC_(ptr noundef nonnull align 8 dereferenceable(32) %0, ptr noundef nonnull align 8 dereferenceable(32) %1) #3 comdat personality ptr @__gxx_personality_v0 {
  %3 = alloca ptr, align 8
  %4 = alloca ptr, align 8
  store ptr %0, ptr %3, align 8, !tbaa !11
  store ptr %1, ptr %4, align 8, !tbaa !11
  %5 = load ptr, ptr %3, align 8, !tbaa !11
  %6 = call noundef i64 @_ZNKSt7__cxx1112basic_stringIcSt11char_traitsIcESaIcEE4sizeEv(ptr noundef nonnull align 8 dereferenceable(32) %5) #19
  %7 = load ptr, ptr %4, align 8, !tbaa !11
  %8 = call noundef i64 @_ZNKSt7__cxx1112basic_stringIcSt11char_traitsIcESaIcEE4sizeEv(ptr noundef nonnull align 8 dereferenceable(32) %7) #19
  %9 = icmp eq i64 %6, %8
  br i1 %9, label %10, label %21

10:                                               ; preds = %2
  %11 = load ptr, ptr %3, align 8, !tbaa !11
  %12 = call noundef ptr @_ZNKSt7__cxx1112basic_stringIcSt11char_traitsIcESaIcEE4dataEv(ptr noundef nonnull align 8 dereferenceable(32) %11) #19
  %13 = load ptr, ptr %4, align 8, !tbaa !11
  %14 = call noundef ptr @_ZNKSt7__cxx1112basic_stringIcSt11char_traitsIcESaIcEE4dataEv(ptr noundef nonnull align 8 dereferenceable(32) %13) #19
  %15 = load ptr, ptr %3, align 8, !tbaa !11
  %16 = call noundef i64 @_ZNKSt7__cxx1112basic_stringIcSt11char_traitsIcESaIcEE4sizeEv(ptr noundef nonnull align 8 dereferenceable(32) %15) #19
  %17 = invoke noundef i32 @_ZNSt11char_traitsIcE7compareEPKcS2_m(ptr noundef %12, ptr noundef %14, i64 noundef %16)
          to label %18 unwind label %23

18:                                               ; preds = %10
  %19 = icmp ne i32 %17, 0
  %20 = xor i1 %19, true
  br label %21

21:                                               ; preds = %18, %2
  %22 = phi i1 [ false, %2 ], [ %20, %18 ]
  ret i1 %22

23:                                               ; preds = %10
  %24 = landingpad { ptr, i32 }
          catch ptr null
  %25 = extractvalue { ptr, i32 } %24, 0
  call void @__clang_call_terminate(ptr %25) #20
  unreachable
}

; Function Attrs: mustprogress uwtable
define dso_local noundef zeroext i1 @_ZNK4Luau5FieldeqERKS0_(ptr noundef nonnull align 8 dereferenceable(48) %0, ptr noundef nonnull align 8 dereferenceable(48) %1) #2 align 2 {
  %3 = alloca ptr, align 8
  %4 = alloca ptr, align 8
  store ptr %0, ptr %3, align 8, !tbaa !8
  store ptr %1, ptr %4, align 8, !tbaa !8
  %5 = load ptr, ptr %3, align 8
  %6 = getelementptr inbounds nuw %"struct.Luau::Field", ptr %5, i32 0, i32 1
  %7 = load ptr, ptr %4, align 8, !tbaa !8
  %8 = getelementptr inbounds nuw %"struct.Luau::Field", ptr %7, i32 0, i32 1
  %9 = call noundef zeroext i1 @_ZSteqIcEN9__gnu_cxx11__enable_ifIXsr9__is_charIT_EE7__valueEbE6__typeERKNSt7__cxx1112basic_stringIS2_St11char_traitsIS2_ESaIS2_EEESC_(ptr noundef nonnull align 8 dereferenceable(32) %6, ptr noundef nonnull align 8 dereferenceable(32) %8) #19
  br i1 %9, label %10, label %24

10:                                               ; preds = %2
  %11 = getelementptr inbounds nuw %"struct.Luau::Field", ptr %5, i32 0, i32 0
  %12 = load ptr, ptr %4, align 8, !tbaa !8
  %13 = getelementptr inbounds nuw %"struct.Luau::Field", ptr %12, i32 0, i32 0
  %14 = call noundef zeroext i1 @_ZSteqIN4Luau7VariantIJNS0_6SymbolENS0_5FieldEEEES4_EbRKSt10shared_ptrIT_ERKS5_IT0_E(ptr noundef nonnull align 8 dereferenceable(16) %11, ptr noundef nonnull align 8 dereferenceable(16) %13) #19
  br i1 %14, label %22, label %15

15:                                               ; preds = %10
  %16 = getelementptr inbounds nuw %"struct.Luau::Field", ptr %5, i32 0, i32 0
  %17 = call noundef nonnull align 8 dereferenceable(56) ptr @_ZNKSt19__shared_ptr_accessIN4Luau7VariantIJNS0_6SymbolENS0_5FieldEEEELN9__gnu_cxx12_Lock_policyE2ELb0ELb0EEdeEv(ptr noundef nonnull align 1 dereferenceable(1) %16) #19
  %18 = load ptr, ptr %4, align 8, !tbaa !8
  %19 = getelementptr inbounds nuw %"struct.Luau::Field", ptr %18, i32 0, i32 0
  %20 = call noundef nonnull align 8 dereferenceable(56) ptr @_ZNKSt19__shared_ptr_accessIN4Luau7VariantIJNS0_6SymbolENS0_5FieldEEEELN9__gnu_cxx12_Lock_policyE2ELb0ELb0EEdeEv(ptr noundef nonnull align 1 dereferenceable(1) %19) #19
  %21 = call noundef zeroext i1 @_ZNK4Luau7VariantIJNS_6SymbolENS_5FieldEEEeqERKS3_(ptr noundef nonnull align 8 dereferenceable(56) %17, ptr noundef nonnull align 8 dereferenceable(56) %20)
  br label %22

22:                                               ; preds = %15, %10
  %23 = phi i1 [ true, %10 ], [ %21, %15 ]
  br label %24

24:                                               ; preds = %22, %2
  %25 = phi i1 [ false, %2 ], [ %23, %22 ]
  ret i1 %25
}