; Function Attrs: mustprogress uwtable
define dso_local noundef zeroext i1 @_ZNK4Luau5FieldeqERKS0_(ptr noundef nonnull readonly align 8 captures(none) dereferenceable(48) %0, ptr noundef nonnull readonly align 8 captures(none) dereferenceable(48) %1) local_unnamed_addr #2 align 2 personality ptr @__gxx_personality_v0 {
  %3 = getelementptr inbounds nuw i8, ptr %0, i64 16
  %4 = getelementptr inbounds nuw i8, ptr %1, i64 16
  %5 = getelementptr inbounds nuw i8, ptr %0, i64 24
  %6 = load i64, ptr %5, align 8, !tbaa !8
  %7 = getelementptr inbounds nuw i8, ptr %1, i64 24
  %8 = load i64, ptr %7, align 8, !tbaa !8
  %9 = icmp eq i64 %6, %8
  br i1 %9, label %10, label %_ZNK4Luau7VariantIJNS_6SymbolENS_5FieldEEEeqERKS3_.exit

10:                                               ; preds = %2
  %11 = icmp eq i64 %6, 0
  br i1 %11, label %_ZSteqIcEN9__gnu_cxx11__enable_ifIXsr9__is_charIT_EE7__valueEbE6__typeERKNSt7__cxx1112basic_stringIS2_St11char_traitsIS2_ESaIS2_EEESC_.exit.thread, label %_ZSteqIcEN9__gnu_cxx11__enable_ifIXsr9__is_charIT_EE7__valueEbE6__typeERKNSt7__cxx1112basic_stringIS2_St11char_traitsIS2_ESaIS2_EEESC_.exit

_ZSteqIcEN9__gnu_cxx11__enable_ifIXsr9__is_charIT_EE7__valueEbE6__typeERKNSt7__cxx1112basic_stringIS2_St11char_traitsIS2_ESaIS2_EEESC_.exit: ; preds = %10
  %12 = load ptr, ptr %4, align 8, !tbaa !14
  %13 = load ptr, ptr %3, align 8, !tbaa !14
  %bcmp.i = tail call i32 @bcmp(ptr %13, ptr %12, i64 %6)
  %14 = icmp eq i32 %bcmp.i, 0
  br i1 %14, label %_ZSteqIcEN9__gnu_cxx11__enable_ifIXsr9__is_charIT_EE7__valueEbE6__typeERKNSt7__cxx1112basic_stringIS2_St11char_traitsIS2_ESaIS2_EEESC_.exit.thread, label %_ZNK4Luau7VariantIJNS_6SymbolENS_5FieldEEEeqERKS3_.exit

_ZSteqIcEN9__gnu_cxx11__enable_ifIXsr9__is_charIT_EE7__valueEbE6__typeERKNSt7__cxx1112basic_stringIS2_St11char_traitsIS2_ESaIS2_EEESC_.exit.thread: ; preds = %10, %_ZSteqIcEN9__gnu_cxx11__enable_ifIXsr9__is_charIT_EE7__valueEbE6__typeERKNSt7__cxx1112basic_stringIS2_St11char_traitsIS2_ESaIS2_EEESC_.exit
  %15 = load ptr, ptr %0, align 8, !tbaa !15
  %16 = load ptr, ptr %1, align 8, !tbaa !15
  %17 = icmp eq ptr %15, %16
  br i1 %17, label %_ZNK4Luau7VariantIJNS_6SymbolENS_5FieldEEEeqERKS3_.exit, label %18

18:                                               ; preds = %_ZSteqIcEN9__gnu_cxx11__enable_ifIXsr9__is_charIT_EE7__valueEbE6__typeERKNSt7__cxx1112basic_stringIS2_St11char_traitsIS2_ESaIS2_EEESC_.exit.thread
  %19 = load i32, ptr %15, align 8, !tbaa !20
  %20 = load i32, ptr %16, align 8, !tbaa !20
  %21 = icmp eq i32 %19, %20
  br i1 %21, label %22, label %_ZNK4Luau7VariantIJNS_6SymbolENS_5FieldEEEeqERKS3_.exit

22:                                               ; preds = %18
  %23 = sext i32 %19 to i64
  %24 = getelementptr inbounds [2 x ptr], ptr @_ZZNK4Luau7VariantIJNS_6SymbolENS_5FieldEEEeqERKS3_E5table, i64 0, i64 %23
  %25 = load ptr, ptr %24, align 8, !tbaa !22
  %26 = getelementptr inbounds nuw i8, ptr %15, i64 8
  %27 = getelementptr inbounds nuw i8, ptr %16, i64 8
  %28 = tail call noundef zeroext i1 %25(ptr noundef nonnull %26, ptr noundef nonnull %27)
  br label %_ZNK4Luau7VariantIJNS_6SymbolENS_5FieldEEEeqERKS3_.exit

_ZNK4Luau7VariantIJNS_6SymbolENS_5FieldEEEeqERKS3_.exit: ; preds = %2, %22, %18, %_ZSteqIcEN9__gnu_cxx11__enable_ifIXsr9__is_charIT_EE7__valueEbE6__typeERKNSt7__cxx1112basic_stringIS2_St11char_traitsIS2_ESaIS2_EEESC_.exit.thread, %_ZSteqIcEN9__gnu_cxx11__enable_ifIXsr9__is_charIT_EE7__valueEbE6__typeERKNSt7__cxx1112basic_stringIS2_St11char_traitsIS2_ESaIS2_EEESC_.exit
  %29 = phi i1 [ false, %_ZSteqIcEN9__gnu_cxx11__enable_ifIXsr9__is_charIT_EE7__valueEbE6__typeERKNSt7__cxx1112basic_stringIS2_St11char_traitsIS2_ESaIS2_EEESC_.exit ], [ true, %_ZSteqIcEN9__gnu_cxx11__enable_ifIXsr9__is_charIT_EE7__valueEbE6__typeERKNSt7__cxx1112basic_stringIS2_St11char_traitsIS2_ESaIS2_EEESC_.exit.thread ], [ false, %18 ], [ %28, %22 ], [ false, %2 ]
  ret i1 %29
}